target datalayout = "e-m:e-p270:32:32-p271:32:32-p272:64:64-i64:64-i128:128-f80:128-n8:16:32:64-S128"
target triple = "x86_64-pc-linux-gnu"

%struct.SXNET_st = type { ptr, ptr }
%struct.SXNET_ID_st = type { ptr, ptr }

@.str.2 = private unnamed_addr constant [34 x i8] c"../openssl/crypto/x509/v3_sxnet.c\00", align 1
@.str.7 = private unnamed_addr constant [26 x i8] c"%*sVersion: <unsupported>\00", align 1
@.str.8 = private unnamed_addr constant [1 x i8] zeroinitializer, align 1
@.str.9 = private unnamed_addr constant [24 x i8] c"%*sVersion: %ld (0x%lX)\00", align 1
@.str.10 = private unnamed_addr constant [21 x i8] c"\0A%*sZone: %s, User: \00", align 1

; Function Attrs: inlinehint nounwind uwtable
define internal ptr @ossl_check_const_SXNETID_sk_type(ptr noundef %0) #4 {
  %2 = alloca ptr, align 8
  store ptr %0, ptr %2, align 8, !tbaa !47
  %3 = load ptr, ptr %2, align 8, !tbaa !47
  ret ptr %3
}

; Function Attrs: nounwind uwtable
define internal i32 @sxnet_i2r(ptr noundef %0, ptr noundef %1, ptr noundef %2, i32 noundef %3) #0 {
  %5 = alloca i32, align 4
  %6 = alloca ptr, align 8
  %7 = alloca ptr, align 8
  %8 = alloca ptr, align 8
  %9 = alloca i32, align 4
  %10 = alloca i64, align 8
  %11 = alloca ptr, align 8
  %12 = alloca ptr, align 8
  %13 = alloca i32, align 4
  %14 = alloca i64, align 8
  %15 = alloca i32, align 4
  store ptr %0, ptr %6, align 8, !tbaa !3
  store ptr %1, ptr %7, align 8, !tbaa !12
  store ptr %2, ptr %8, align 8, !tbaa !23
  store i32 %3, ptr %9, align 4, !tbaa !14
  call void @llvm.lifetime.start.p0(i64 8, ptr %10) #5
  call void @llvm.lifetime.start.p0(i64 8, ptr %11) #5
  call void @llvm.lifetime.start.p0(i64 8, ptr %12) #5
  call void @llvm.lifetime.start.p0(i64 4, ptr %13) #5
  %16 = load ptr, ptr %7, align 8, !tbaa !12
  %17 = getelementptr inbounds nuw %struct.SXNET_st, ptr %16, i32 0, i32 0
  %18 = load ptr, ptr %17, align 8, !tbaa !25
  %19 = call i32 @ASN1_INTEGER_get_int64(ptr noundef %10, ptr noundef %18)
  %20 = icmp ne i32 %19, 0
  br i1 %20, label %21, label %27

21:                                               ; preds = %4
  %22 = load i64, ptr %10, align 8, !tbaa !29
  %23 = icmp sge i64 %22, 9223372036854775807
  br i1 %23, label %27, label %24

24:                                               ; preds = %21
  %25 = load i64, ptr %10, align 8, !tbaa !29
  %26 = icmp slt i64 %25, -9223372036854775808
  br i1 %26, label %27, label %31

27:                                               ; preds = %24, %21, %4
  %28 = load ptr, ptr %8, align 8, !tbaa !23
  %29 = load i32, ptr %9, align 4, !tbaa !14
  %30 = call i32 (ptr, ptr, ...) @BIO_printf(ptr noundef %28, ptr noundef @.str.7, i32 noundef %29, ptr noundef @.str.8)
  br label %39

31:                                               ; preds = %24
  call void @llvm.lifetime.start.p0(i64 8, ptr %14) #5
  %32 = load i64, ptr %10, align 8, !tbaa !29
  store i64 %32, ptr %14, align 8, !tbaa !29
  %33 = load ptr, ptr %8, align 8, !tbaa !23
  %34 = load i32, ptr %9, align 4, !tbaa !14
  %35 = load i64, ptr %14, align 8, !tbaa !29
  %36 = add nsw i64 %35, 1
  %37 = load i64, ptr %14, align 8, !tbaa !29
  %38 = call i32 (ptr, ptr, ...) @BIO_printf(ptr noundef %33, ptr noundef @.str.9, i32 noundef %34, ptr noundef @.str.8, i64 noundef %36, i64 noundef %37)
  call void @llvm.lifetime.end.p0(i64 8, ptr %14) #5
  br label %39

39:                                               ; preds = %31, %27
  store i32 0, ptr %13, align 4, !tbaa !14
  br label %40

40:                                               ; preds = %73, %39
  %41 = load i32, ptr %13, align 4, !tbaa !14
  %42 = load ptr, ptr %7, align 8, !tbaa !12
  %43 = getelementptr inbounds nuw %struct.SXNET_st, ptr %42, i32 0, i32 1
  %44 = load ptr, ptr %43, align 8, !tbaa !31
  %45 = call ptr @ossl_check_const_SXNETID_sk_type(ptr noundef %44)
  %46 = call i32 @OPENSSL_sk_num(ptr noundef %45)
  %47 = icmp slt i32 %41, %46
  br i1 %47, label %48, label %76

48:                                               ; preds = %40
  %49 = load ptr, ptr %7, align 8, !tbaa !12
  %50 = getelementptr inbounds nuw %struct.SXNET_st, ptr %49, i32 0, i32 1
  %51 = load ptr, ptr %50, align 8, !tbaa !31
  %52 = call ptr @ossl_check_const_SXNETID_sk_type(ptr noundef %51)
  %53 = load i32, ptr %13, align 4, !tbaa !14
  %54 = call ptr @OPENSSL_sk_value(ptr noundef %52, i32 noundef %53)
  store ptr %54, ptr %12, align 8, !tbaa !32
  %55 = load ptr, ptr %12, align 8, !tbaa !32
  %56 = getelementptr inbounds nuw %struct.SXNET_ID_st, ptr %55, i32 0, i32 0
  %57 = load ptr, ptr %56, align 8, !tbaa !34
  %58 = call ptr @i2s_ASN1_INTEGER(ptr noundef null, ptr noundef %57)
  store ptr %58, ptr %11, align 8, !tbaa !36
  %59 = load ptr, ptr %11, align 8, !tbaa !36
  %60 = icmp eq ptr %59, null
  br i1 %60, label %61, label %62

61:                                               ; preds = %48
  store i32 0, ptr %5, align 4
  store i32 1, ptr %15, align 4
  br label %77

62:                                               ; preds = %48
  %63 = load ptr, ptr %8, align 8, !tbaa !23
  %64 = load i32, ptr %9, align 4, !tbaa !14
  %65 = load ptr, ptr %11, align 8, !tbaa !36
  %66 = call i32 (ptr, ptr, ...) @BIO_printf(ptr noundef %63, ptr noundef @.str.10, i32 noundef %64, ptr noundef @.str.8, ptr noundef %65)
  %67 = load ptr, ptr %11, align 8, !tbaa !36
  call void @CRYPTO_free(ptr noundef %67, ptr noundef @.str.2, i32 noundef 84)
  %68 = load ptr, ptr %8, align 8, !tbaa !23
  %69 = load ptr, ptr %12, align 8, !tbaa !32
  %70 = getelementptr inbounds nuw %struct.SXNET_ID_st, ptr %69, i32 0, i32 1
  %71 = load ptr, ptr %70, align 8, !tbaa !37
  %72 = call i32 @ASN1_STRING_print(ptr noundef %68, ptr noundef %71)
  br label %73

73:                                               ; preds = %62
  %74 = load i32, ptr %13, align 4, !tbaa !14
  %75 = add nsw i32 %74, 1
  store i32 %75, ptr %13, align 4, !tbaa !14
  br label %40, !llvm.loop !38

76:                                               ; preds = %40
  store i32 1, ptr %5, align 4
  store i32 1, ptr %15, align 4
  br label %77

77:                                               ; preds = %76, %61
  call void @llvm.lifetime.end.p0(i64 4, ptr %13) #5
  call void @llvm.lifetime.end.p0(i64 8, ptr %12) #5
  call void @llvm.lifetime.end.p0(i64 8, ptr %11) #5
  call void @llvm.lifetime.end.p0(i64 8, ptr %10) #5
  %78 = load i32, ptr %5, align 4
  ret i32 %78
}