; Function Attrs: nounwind uwtable
define internal range(i32 0, 2) i32 @sxnet_i2r(ptr readnone captures(none) %0, ptr noundef readonly captures(none) %1, ptr noundef %2, i32 noundef %3) #1 {
  %5 = alloca i64, align 8
  call void @llvm.lifetime.start.p0(i64 8, ptr nonnull %5) #5
  %6 = load ptr, ptr %1, align 8, !tbaa !14
  %7 = call i32 @ASN1_INTEGER_get_int64(ptr noundef nonnull %5, ptr noundef %6) #5
  %8 = icmp eq i32 %7, 0
  %9 = load i64, ptr %5, align 8
  %10 = icmp eq i64 %9, 9223372036854775807
  %or.cond = select i1 %8, i1 true, i1 %10
  br i1 %or.cond, label %11, label %13

11:                                               ; preds = %4
  %12 = call i32 (ptr, ptr, ...) @BIO_printf(ptr noundef %2, ptr noundef nonnull @.str.7, i32 noundef %3, ptr noundef nonnull @.str.8) #5
  br label %16

13:                                               ; preds = %4
  %14 = add nsw i64 %9, 1
  %15 = call i32 (ptr, ptr, ...) @BIO_printf(ptr noundef %2, ptr noundef nonnull @.str.9, i32 noundef %3, ptr noundef nonnull @.str.8, i64 noundef %14, i64 noundef %9) #5
  br label %16

16:                                               ; preds = %13, %11
  %17 = getelementptr inbounds nuw i8, ptr %1, i64 8
  %18 = load ptr, ptr %17, align 8, !tbaa !18
  %19 = call i32 @OPENSSL_sk_num(ptr noundef %18) #5
  %20 = icmp sgt i32 %19, 0
  br i1 %20, label %.lr.ph, label %._crit_edge

.lr.ph:                                           ; preds = %16, %26
  %.02326 = phi i32 [ %31, %26 ], [ 0, %16 ]
  %21 = load ptr, ptr %17, align 8, !tbaa !18
  %22 = call ptr @OPENSSL_sk_value(ptr noundef %21, i32 noundef %.02326) #5
  %23 = load ptr, ptr %22, align 8, !tbaa !19
  %24 = call ptr @i2s_ASN1_INTEGER(ptr noundef null, ptr noundef %23) #5
  %25 = icmp eq ptr %24, null
  br i1 %25, label %._crit_edge, label %26

26:                                               ; preds = %.lr.ph
  %27 = call i32 (ptr, ptr, ...) @BIO_printf(ptr noundef %2, ptr noundef nonnull @.str.10, i32 noundef %3, ptr noundef nonnull @.str.8, ptr noundef nonnull %24) #5
  call void @CRYPTO_free(ptr noundef nonnull %24, ptr noundef nonnull @.str.2, i32 noundef 84) #5
  %28 = getelementptr inbounds nuw i8, ptr %22, i64 8
  %29 = load ptr, ptr %28, align 8, !tbaa !21
  %30 = call i32 @ASN1_STRING_print(ptr noundef %2, ptr noundef %29) #5
  %31 = add nuw nsw i32 %.02326, 1
  %32 = load ptr, ptr %17, align 8, !tbaa !18
  %33 = call i32 @OPENSSL_sk_num(ptr noundef %32) #5
  %34 = icmp slt i32 %31, %33
  br i1 %34, label %.lr.ph, label %._crit_edge, !llvm.loop !22

._crit_edge:                                      ; preds = %.lr.ph, %26, %16
  %.0 = phi i32 [ 1, %16 ], [ 1, %26 ], [ 0, %.lr.ph ]
  call void @llvm.lifetime.end.p0(i64 8, ptr nonnull %5) #5
  ret i32 %.0
}